target datalayout = "e-m:e-p270:32:32-p271:32:32-p272:64:64-i64:64-i128:128-f80:128-n8:16:32:64-S128"
target triple = "x86_64-pc-linux-gnu"

%struct._packet_info = type { ptr, ptr, i32, i32, %struct.nstime_t, %struct.nstime_t, %struct.nstime_t, i8, ptr, ptr, ptr, ptr, %struct._address, %struct._address, %struct._address, %struct._address, %struct._address, %struct._address, i32, ptr, i8, [3 x i8], %struct.anon, i32, i32, i32, i32, ptr, i8, ptr, ptr, i16, i16, i32, i32, i16, i32, i32, ptr, ptr, ptr, i8, i8, i16, i16, i16, i32, i16, i16, ptr, ptr, ptr, ptr, ptr, i32, i32 }
%struct.nstime_t = type { i64, i32 }
%struct._address = type { i32, i32, ptr, ptr }
%struct.anon = type { i8, [3 x i8] }
%struct._frame_data = type <{ i32, i32, i32, i32, i32, [4 x i8], i64, ptr, ptr, ptr, i8, i16, [5 x i8], %struct.nstime_t, %struct.nstime_t, i32, i32 }>
%struct._command_data = type { %struct._ftdi_mpsse_info_t, i8, i8, i8, i32, i32, i32, ptr }
%struct._ftdi_mpsse_info_t = type { i32, i32, i32, i32, i8 }
%struct._proto_node = type { ptr, ptr, ptr, ptr, ptr, ptr, ptr }
%struct.field_info = type { ptr, i32, i32, i32, i32, i32, i32, ptr, ptr, ptr, i32, i32 }

@hf_mpsse_response_in = internal global i32 0, align 4
@.str.119 = private unnamed_addr constant [29 x i8] c"%s:%u: failed assertion \22%s\22\00", align 1
@.str.120 = private unnamed_addr constant [36 x i8] c"epan/dissectors/packet-ftdi-mpsse.c\00", align 1
@.str.242 = private unnamed_addr constant [10 x i8] c"*cmd_data\00", align 1
@.str.243 = private unnamed_addr constant [24 x i8] c"(*cmd_data)->cmd == cmd\00", align 1
@.str.244 = private unnamed_addr constant [48 x i8] c"(*cmd_data)->response_length == response_length\00", align 1
@.str.245 = private unnamed_addr constant [45 x i8] c"(*cmd_data)->command_in_packet == pinfo->num\00", align 1

; Function Attrs: inlinehint nounwind null_pointer_is_valid sspstrong uwtable
define internal void @proto_item_set_generated(ptr noundef %0) #10 {
  %2 = alloca ptr, align 8
  store ptr %0, ptr %2, align 8
  %3 = load ptr, ptr %2, align 8
  %4 = icmp ne ptr %3, null
  br i1 %4, label %5, label %24

5:                                                ; preds = %1
  br label %6

6:                                                ; preds = %5
  %7 = load ptr, ptr %2, align 8
  %8 = getelementptr inbounds nuw %struct._proto_node, ptr %7, i32 0, i32 5
  %9 = load ptr, ptr %8, align 8
  %10 = icmp ne ptr %9, null
  br i1 %10, label %11, label %22

11:                                               ; preds = %6
  %12 = load ptr, ptr %2, align 8
  %13 = getelementptr inbounds nuw %struct._proto_node, ptr %12, i32 0, i32 5
  %14 = load ptr, ptr %13, align 8
  %15 = getelementptr inbounds nuw %struct.field_info, ptr %14, i32 0, i32 6
  %16 = load i32, ptr %15, align 4
  %17 = or i32 %16, 2
  %18 = load ptr, ptr %2, align 8
  %19 = getelementptr inbounds nuw %struct._proto_node, ptr %18, i32 0, i32 5
  %20 = load ptr, ptr %19, align 8
  %21 = getelementptr inbounds nuw %struct.field_info, ptr %20, i32 0, i32 6
  store i32 %17, ptr %21, align 4
  br label %22

22:                                               ; preds = %11, %6
  br label %23

23:                                               ; preds = %22
  br label %24

24:                                               ; preds = %23, %1
  ret void
}

; Function Attrs: null_pointer_is_valid sspstrong uwtable
define internal void @expect_response(ptr noundef %0, ptr noundef %1, ptr noundef %2, ptr noundef %3, i8 noundef zeroext %4, i16 noundef zeroext %5) #0 {
  %7 = alloca ptr, align 8
  %8 = alloca ptr, align 8
  %9 = alloca ptr, align 8
  %10 = alloca ptr, align 8
  %11 = alloca i8, align 1
  %12 = alloca i16, align 2
  %13 = alloca ptr, align 8
  store ptr %0, ptr %7, align 8
  store ptr %1, ptr %8, align 8
  store ptr %2, ptr %9, align 8
  store ptr %3, ptr %10, align 8
  store i8 %4, ptr %11, align 1
  store i16 %5, ptr %12, align 2
  %14 = load ptr, ptr %8, align 8
  %15 = getelementptr inbounds nuw %struct._packet_info, ptr %14, i32 0, i32 8
  %16 = load ptr, ptr %15, align 8
  %17 = getelementptr inbounds nuw %struct._frame_data, ptr %16, i32 0, i32 11
  %18 = load i16, ptr %17, align 1
  %19 = lshr i16 %18, 3
  %20 = and i16 %19, 1
  %21 = zext i16 %20 to i32
  %22 = icmp ne i32 %21, 0
  br i1 %22, label %23, label %86

23:                                               ; preds = %6
  %24 = load ptr, ptr %7, align 8
  %25 = load ptr, ptr %24, align 8
  %26 = icmp ne ptr %25, null
  br i1 %26, label %27, label %28

27:                                               ; preds = %23
  br label %30

28:                                               ; preds = %23
  call void (ptr, ...) @proto_report_dissector_bug(ptr noundef @.str.119, ptr noundef @.str.120, i32 noundef 469, ptr noundef @.str.242) #12
  unreachable

29:                                               ; No predecessors!
  br label %30

30:                                               ; preds = %29, %27
  %31 = load ptr, ptr %7, align 8
  %32 = load ptr, ptr %31, align 8
  %33 = getelementptr inbounds nuw %struct._command_data, ptr %32, i32 0, i32 3
  %34 = load i8, ptr %33, align 2
  %35 = zext i8 %34 to i32
  %36 = load i8, ptr %11, align 1
  %37 = zext i8 %36 to i32
  %38 = icmp eq i32 %35, %37
  br i1 %38, label %39, label %40

39:                                               ; preds = %30
  br label %42

40:                                               ; preds = %30
  call void (ptr, ...) @proto_report_dissector_bug(ptr noundef @.str.119, ptr noundef @.str.120, i32 noundef 470, ptr noundef @.str.243) #12
  unreachable

41:                                               ; No predecessors!
  br label %42

42:                                               ; preds = %41, %39
  %43 = load ptr, ptr %7, align 8
  %44 = load ptr, ptr %43, align 8
  %45 = getelementptr inbounds nuw %struct._command_data, ptr %44, i32 0, i32 4
  %46 = load i32, ptr %45, align 8
  %47 = load i16, ptr %12, align 2
  %48 = zext i16 %47 to i32
  %49 = icmp eq i32 %46, %48
  br i1 %49, label %50, label %51

50:                                               ; preds = %42
  br label %53

51:                                               ; preds = %42
  call void (ptr, ...) @proto_report_dissector_bug(ptr noundef @.str.119, ptr noundef @.str.120, i32 noundef 471, ptr noundef @.str.244) #12
  unreachable

52:                                               ; No predecessors!
  br label %53

53:                                               ; preds = %52, %50
  %54 = load ptr, ptr %7, align 8
  %55 = load ptr, ptr %54, align 8
  %56 = getelementptr inbounds nuw %struct._command_data, ptr %55, i32 0, i32 2
  %57 = load i8, ptr %56, align 1, !range !6, !noundef !7
  %58 = trunc i8 %57 to i1
  br i1 %58, label %59, label %80

59:                                               ; preds = %53
  call void @llvm.lifetime.start.p0(i64 8, ptr %13) #11
  %60 = load ptr, ptr %9, align 8
  %61 = load i32, ptr @hf_mpsse_response_in, align 4
  %62 = load ptr, ptr %7, align 8
  %63 = load ptr, ptr %62, align 8
  %64 = getelementptr inbounds nuw %struct._command_data, ptr %63, i32 0, i32 6
  %65 = load i32, ptr %64, align 8
  %66 = call ptr @proto_tree_add_uint(ptr noundef %60, i32 noundef %61, ptr noundef null, i32 noundef 0, i32 noundef 0, i32 noundef %65)
  store ptr %66, ptr %13, align 8
  %67 = load ptr, ptr %13, align 8
  call void @proto_item_set_generated(ptr noundef %67)
  %68 = load ptr, ptr %7, align 8
  %69 = load ptr, ptr %68, align 8
  %70 = getelementptr inbounds nuw %struct._command_data, ptr %69, i32 0, i32 5
  %71 = load i32, ptr %70, align 4
  %72 = load ptr, ptr %8, align 8
  %73 = getelementptr inbounds nuw %struct._packet_info, ptr %72, i32 0, i32 3
  %74 = load i32, ptr %73, align 4
  %75 = icmp eq i32 %71, %74
  br i1 %75, label %76, label %77

76:                                               ; preds = %59
  br label %79

77:                                               ; preds = %59
  call void (ptr, ...) @proto_report_dissector_bug(ptr noundef @.str.119, ptr noundef @.str.120, i32 noundef 476, ptr noundef @.str.245) #12
  unreachable

78:                                               ; No predecessors!
  br label %79

79:                                               ; preds = %78, %76
  call void @llvm.lifetime.end.p0(i64 8, ptr %13) #11
  br label %80

80:                                               ; preds = %79, %53
  %81 = load ptr, ptr %7, align 8
  %82 = load ptr, ptr %81, align 8
  %83 = getelementptr inbounds nuw %struct._command_data, ptr %82, i32 0, i32 7
  %84 = load ptr, ptr %83, align 8
  %85 = load ptr, ptr %7, align 8
  store ptr %84, ptr %85, align 8
  br label %93

86:                                               ; preds = %6
  %87 = load ptr, ptr %7, align 8
  %88 = load ptr, ptr %8, align 8
  %89 = load ptr, ptr %10, align 8
  %90 = load i8, ptr %11, align 1
  %91 = load i16, ptr %12, align 2
  %92 = zext i16 %91 to i32
  call void @record_command_data(ptr noundef %87, ptr noundef %88, ptr noundef %89, i8 noundef zeroext %90, i32 noundef %92, i1 noundef zeroext false)
  br label %93

93:                                               ; preds = %86, %80
  ret void
}