; Function Attrs: null_pointer_is_valid sspstrong uwtable
define internal fastcc void @expect_response(ptr noundef captures(none) %0, ptr noundef %1, ptr noundef %2, ptr noundef nonnull readonly captures(none) %3, i8 noundef zeroext %4, i16 noundef zeroext %5) unnamed_addr #0 {
  %7 = getelementptr inbounds nuw i8, ptr %1, i64 80
  %8 = load ptr, ptr %7, align 8
  %9 = getelementptr inbounds nuw i8, ptr %8, i64 57
  %10 = load i16, ptr %9, align 1
  %11 = and i16 %10, 8
  %.not = icmp eq i16 %11, 0
  br i1 %.not, label %53, label %12

12:                                               ; preds = %6
  %13 = load ptr, ptr %0, align 8
  %.not18 = icmp eq ptr %13, null
  br i1 %.not18, label %14, label %15

14:                                               ; preds = %12
  tail call void (ptr, ...) @proto_report_dissector_bug(ptr noundef nonnull @.str.119, ptr noundef nonnull @.str.120, i32 noundef 469, ptr noundef nonnull @.str.242) #9
  unreachable

15:                                               ; preds = %12
  %16 = getelementptr inbounds nuw i8, ptr %13, i64 22
  %17 = load i8, ptr %16, align 2
  %18 = icmp eq i8 %17, %4
  br i1 %18, label %20, label %19

19:                                               ; preds = %15
  tail call void (ptr, ...) @proto_report_dissector_bug(ptr noundef nonnull @.str.119, ptr noundef nonnull @.str.120, i32 noundef 470, ptr noundef nonnull @.str.243) #9
  unreachable

20:                                               ; preds = %15
  %21 = getelementptr inbounds nuw i8, ptr %13, i64 24
  %22 = load i32, ptr %21, align 8
  %23 = zext i16 %5 to i32
  %24 = icmp eq i32 %22, %23
  br i1 %24, label %26, label %25

25:                                               ; preds = %20
  tail call void (ptr, ...) @proto_report_dissector_bug(ptr noundef nonnull @.str.119, ptr noundef nonnull @.str.120, i32 noundef 471, ptr noundef nonnull @.str.244) #9
  unreachable

26:                                               ; preds = %20
  %27 = getelementptr inbounds nuw i8, ptr %13, i64 21
  %28 = load i8, ptr %27, align 1, !range !6, !noundef !7
  %29 = trunc nuw i8 %28 to i1
  br i1 %29, label %30, label %49

30:                                               ; preds = %26
  %31 = load i32, ptr @hf_mpsse_response_in, align 4
  %32 = getelementptr inbounds nuw i8, ptr %13, i64 32
  %33 = load i32, ptr %32, align 8
  %34 = tail call ptr @proto_tree_add_uint(ptr noundef %2, i32 noundef %31, ptr noundef null, i32 noundef 0, i32 noundef 0, i32 noundef %33)
  %.not.i = icmp eq ptr %34, null
  br i1 %.not.i, label %proto_item_set_generated.exit, label %35

35:                                               ; preds = %30
  %36 = getelementptr inbounds nuw i8, ptr %34, i64 40
  %37 = load ptr, ptr %36, align 8
  %.not5.i = icmp eq ptr %37, null
  br i1 %.not5.i, label %proto_item_set_generated.exit, label %38

38:                                               ; preds = %35
  %39 = getelementptr inbounds nuw i8, ptr %37, i64 28
  %40 = load i32, ptr %39, align 4
  %41 = or i32 %40, 2
  store i32 %41, ptr %39, align 4
  br label %proto_item_set_generated.exit

proto_item_set_generated.exit:                    ; preds = %30, %35, %38
  %42 = load ptr, ptr %0, align 8
  %43 = getelementptr inbounds nuw i8, ptr %42, i64 28
  %44 = load i32, ptr %43, align 4
  %45 = getelementptr inbounds nuw i8, ptr %1, i64 20
  %46 = load i32, ptr %45, align 4
  %47 = icmp eq i32 %44, %46
  br i1 %47, label %49, label %48

48:                                               ; preds = %proto_item_set_generated.exit
  tail call void (ptr, ...) @proto_report_dissector_bug(ptr noundef nonnull @.str.119, ptr noundef nonnull @.str.120, i32 noundef 476, ptr noundef nonnull @.str.245) #9
  unreachable

49:                                               ; preds = %proto_item_set_generated.exit, %26
  %50 = phi ptr [ %42, %proto_item_set_generated.exit ], [ %13, %26 ]
  %51 = getelementptr inbounds nuw i8, ptr %50, i64 40
  %52 = load ptr, ptr %51, align 8
  store ptr %52, ptr %0, align 8
  br label %55

53:                                               ; preds = %6
  %54 = zext i16 %5 to i32
  tail call fastcc void @record_command_data(ptr noundef %0, ptr noundef %1, ptr noundef %3, i8 noundef zeroext %4, i32 noundef %54, i1 noundef zeroext false)
  br label %55

55:                                               ; preds = %53, %49
  ret void
}